target datalayout = "e-m:e-p270:32:32-p271:32:32-p272:64:64-i64:64-i128:128-f80:128-n8:16:32:64-S128"
target triple = "x86_64-pc-linux-gnu"

%class.RtpAudioStream = type { %class.QObject, %struct._rtpstream_id, %struct._rtpstream_info, i8, %class.QList, ptr, ptr, ptr, double, double, double, double, i64, %class.AudioRouting, i8, i32, i32, i32, %class.QSet, ptr, %class.QMap, %class.QList.0, %class.QList.4, %class.QList.4, %class.QList.4, %class.QList.4, i16, i16, i32, i32, i32, double, ptr }
%class.QObject = type { ptr, %class.QScopedPointer }
%class.QScopedPointer = type { ptr }
%struct._rtpstream_id = type { %struct._address, i16, %struct._address, i16, i32 }
%struct._address = type { i32, i32, ptr, ptr }
%struct._rtpstream_info = type { %struct._rtpstream_id, i8, ptr, [256 x ptr], ptr, i32, i32, i32, i32, i32, i32, ptr, ptr, %struct.nstime_t, %struct.nstime_t, %struct.nstime_t, i16, i32, i32, %struct._tap_rtp_stat_t, i32, ptr }
%struct.nstime_t = type { i64, i32 }
%struct._tap_rtp_stat_t = type { i32, i32, i16, i64, i64, double, [300 x %struct._bw_history_item], i16, i16, i32, i32, double, double, double, double, double, double, double, double, double, double, double, double, double, double, double, double, double, double, double, i32, i16, i16, i32, i32, i32, i32, i16, i32, i32, i32 }
%struct._bw_history_item = type { double, i32 }
%class.QList = type { %struct.QArrayDataPointer }
%struct.QArrayDataPointer = type { ptr, ptr, i64 }
%class.AudioRouting = type { i8, i32 }
%class.QSet = type { %class.QHash }
%class.QHash = type { ptr }
%class.QMap = type { %"class.QtPrivate::QExplicitlySharedDataPointerV2" }
%"class.QtPrivate::QExplicitlySharedDataPointerV2" = type { ptr }
%class.QList.0 = type { %struct.QArrayDataPointer.3 }
%struct.QArrayDataPointer.3 = type { ptr, ptr, i64 }
%class.QList.4 = type { %struct.QArrayDataPointer.7 }
%struct.QArrayDataPointer.7 = type { ptr, ptr, i64 }

@.str.9 = private unnamed_addr constant [21 x i8] c"1delayedStopStream()\00", align 1

; Function Attrs: mustprogress uwtable
define linkonce_odr noundef zeroext i1 @_ZNK7QObject10disconnectEPKcPKS_S1_(ptr noundef nonnull align 8 dereferenceable(16) %0, ptr noundef %1, ptr noundef %2, ptr noundef %3) #0 comdat align 2 {
  %5 = alloca ptr, align 8
  %6 = alloca ptr, align 8
  %7 = alloca ptr, align 8
  %8 = alloca ptr, align 8
  store ptr %0, ptr %5, align 8
  store ptr %1, ptr %6, align 8
  store ptr %2, ptr %7, align 8
  store ptr %3, ptr %8, align 8
  %9 = load ptr, ptr %5, align 8
  %10 = load ptr, ptr %6, align 8
  %11 = load ptr, ptr %7, align 8
  %12 = load ptr, ptr %8, align 8
  %13 = call noundef zeroext i1 @_ZN7QObject10disconnectEPKS_PKcS1_S3_(ptr noundef %9, ptr noundef %10, ptr noundef %11, ptr noundef %12)
  ret i1 %13
}

; Function Attrs: mustprogress uwtable
define void @_ZN14RtpAudioStream18outputStateChangedEN6QAudio5StateE(ptr noundef nonnull align 8 dereferenceable(7680) %0, i32 noundef %1) #0 align 2 {
  %3 = alloca ptr, align 8
  %4 = alloca i32, align 4
  %5 = alloca i32, align 4
  store ptr %0, ptr %3, align 8
  store i32 %1, ptr %4, align 4
  %6 = load ptr, ptr %3, align 8
  %7 = getelementptr inbounds %class.RtpAudioStream, ptr %6, i32 0, i32 32
  %8 = load ptr, ptr %7, align 8
  %9 = icmp ne ptr %8, null
  br i1 %9, label %11, label %10

10:                                               ; preds = %2
  br label %28

11:                                               ; preds = %2
  %12 = load i32, ptr %4, align 4
  switch i32 %12, label %27 [
    i32 2, label %13
    i32 3, label %26
  ]

13:                                               ; preds = %11
  %14 = getelementptr inbounds %class.RtpAudioStream, ptr %6, i32 0, i32 32
  %15 = load ptr, ptr %14, align 8
  %16 = call noundef i32 @_ZNK10QAudioSink5errorEv(ptr noundef nonnull align 8 dereferenceable(24) %15)
  store i32 %16, ptr %5, align 4
  %17 = getelementptr inbounds %class.RtpAudioStream, ptr %6, i32 0, i32 32
  %18 = load ptr, ptr %17, align 8
  call void @_ZN7QObject9setParentEPS_(ptr noundef nonnull align 8 dereferenceable(16) %18, ptr noundef null)
  %19 = getelementptr inbounds %class.RtpAudioStream, ptr %6, i32 0, i32 32
  %20 = load ptr, ptr %19, align 8
  %21 = call noundef zeroext i1 @_ZNK7QObject10disconnectEPKcPKS_S1_(ptr noundef nonnull align 8 dereferenceable(16) %20, ptr noundef null, ptr noundef null, ptr noundef null)
  %22 = getelementptr inbounds %class.RtpAudioStream, ptr %6, i32 0, i32 32
  %23 = load ptr, ptr %22, align 8
  call void @_ZN7QObject11deleteLaterEv(ptr noundef nonnull align 8 dereferenceable(16) %23)
  %24 = getelementptr inbounds %class.RtpAudioStream, ptr %6, i32 0, i32 32
  store ptr null, ptr %24, align 8
  %25 = load i32, ptr %5, align 4
  call void @_ZN14RtpAudioStream15finishedPlayingEPS_N6QAudio5ErrorE(ptr noundef nonnull align 8 dereferenceable(7680) %6, ptr noundef %6, i32 noundef %25)
  br label %28

26:                                               ; preds = %11
  call void @_ZN6QTimer10singleShotEiPK7QObjectPKc(i32 noundef 0, ptr noundef %6, ptr noundef @.str.9)
  br label %28

27:                                               ; preds = %11
  br label %28

28:                                               ; preds = %27, %26, %13, %10
  ret void
}