; Function Attrs: mustprogress uwtable
define void @_ZN14RtpAudioStream18outputStateChangedEN6QAudio5StateE(ptr noundef nonnull align 8 dereferenceable(7680) %0, i32 noundef %1) #0 align 2 {
  %3 = getelementptr inbounds i8, ptr %0, i64 7672
  %4 = load ptr, ptr %3, align 8
  %.not = icmp eq ptr %4, null
  br i1 %.not, label %13, label %5

5:                                                ; preds = %2
  switch i32 %1, label %13 [
    i32 2, label %6
    i32 3, label %12
  ]

6:                                                ; preds = %5
  %7 = tail call noundef i32 @_ZNK10QAudioSink5errorEv(ptr noundef nonnull align 8 dereferenceable(24) %4)
  %8 = load ptr, ptr %3, align 8
  tail call void @_ZN7QObject9setParentEPS_(ptr noundef nonnull align 8 dereferenceable(16) %8, ptr noundef null)
  %9 = load ptr, ptr %3, align 8
  %10 = tail call noundef zeroext i1 @_ZN7QObject10disconnectEPKS_PKcS1_S3_(ptr noundef nonnull %9, ptr noundef null, ptr noundef null, ptr noundef null)
  %11 = load ptr, ptr %3, align 8
  tail call void @_ZN7QObject11deleteLaterEv(ptr noundef nonnull align 8 dereferenceable(16) %11)
  store ptr null, ptr %3, align 8
  tail call void @_ZN14RtpAudioStream15finishedPlayingEPS_N6QAudio5ErrorE(ptr noundef nonnull align 8 dereferenceable(7680) %0, ptr noundef nonnull %0, i32 noundef %7)
  br label %13

12:                                               ; preds = %5
  tail call void @_ZN6QTimer10singleShotEiPK7QObjectPKc(i32 noundef 0, ptr noundef nonnull %0, ptr noundef nonnull @.str.9)
  br label %13

13:                                               ; preds = %5, %2, %12, %6
  ret void
}